; Function Attrs: mustprogress uwtable
define void @_ZN4SHA15resetEv(ptr noundef nonnull align 8 dereferenceable(64) initializes((0, 20), (56, 64)) %0) local_unnamed_addr #3 align 2 {
  store i32 1732584193, ptr %0, align 8, !tbaa !16
  %2 = getelementptr inbounds nuw i8, ptr %0, i64 4
  store i32 -271733879, ptr %2, align 4, !tbaa !16
  %3 = getelementptr inbounds nuw i8, ptr %0, i64 8
  store i32 -1732584194, ptr %3, align 8, !tbaa !16
  %4 = getelementptr inbounds nuw i8, ptr %0, i64 12
  store i32 271733878, ptr %4, align 4, !tbaa !16
  %5 = getelementptr inbounds nuw i8, ptr %0, i64 16
  store i32 -1009589776, ptr %5, align 8, !tbaa !16
  %6 = getelementptr inbounds nuw i8, ptr %0, i64 56
  store i64 0, ptr %6, align 8, !tbaa !18
  %7 = getelementptr inbounds nuw i8, ptr %0, i64 24
  %8 = getelementptr inbounds nuw i8, ptr %0, i64 32
  %9 = load i64, ptr %8, align 8, !tbaa !12
  %10 = tail call noundef nonnull align 8 dereferenceable(32) ptr @_ZNSt7__cxx1112basic_stringIcSt11char_traitsIcESaIcEE10_M_replaceEmmPKcm(ptr noundef nonnull align 8 dereferenceable(32) %7, i64 noundef 0, i64 noundef %9, ptr noundef nonnull @.str, i64 noundef 0)
  ret void
}